target datalayout = "e-m:e-p270:32:32-p271:32:32-p272:64:64-i64:64-i128:128-f80:128-n8:16:32:64-S128"
target triple = "x86_64-pc-linux-gnu"

%struct.MixContext = type { ptr, ptr, i32, i32, i32, float, ptr, i32, i32, i32, i32, ptr, ptr, ptr, ptr, float, ptr, i64, ptr }

; Function Attrs: nounwind uwtable
define internal void @calculate_scales(ptr noundef %0, i32 noundef %1) #1 {
  %3 = alloca ptr, align 8
  %4 = alloca i32, align 4
  %5 = alloca float, align 4
  %6 = alloca i32, align 4
  store ptr %0, ptr %3, align 8, !tbaa !22
  store i32 %1, ptr %4, align 4, !tbaa !24
  call void @llvm.lifetime.start.p0(i64 4, ptr %5) #9
  store float 0.000000e+00, ptr %5, align 4, !tbaa !47
  call void @llvm.lifetime.start.p0(i64 4, ptr %6) #9
  store i32 0, ptr %6, align 4, !tbaa !24
  br label %7

7:                                                ; preds = %55, %2
  %8 = load i32, ptr %6, align 4, !tbaa !24
  %9 = load ptr, ptr %3, align 8, !tbaa !22
  %10 = getelementptr inbounds nuw %struct.MixContext, ptr %9, i32 0, i32 2
  %11 = load i32, ptr %10, align 8, !tbaa !25
  %12 = icmp slt i32 %8, %11
  br i1 %12, label %13, label %58

13:                                               ; preds = %7
  %14 = load ptr, ptr %3, align 8, !tbaa !22
  %15 = getelementptr inbounds nuw %struct.MixContext, ptr %14, i32 0, i32 12
  %16 = load ptr, ptr %15, align 8, !tbaa !70
  %17 = load i32, ptr %6, align 4, !tbaa !24
  %18 = sext i32 %17 to i64
  %19 = getelementptr inbounds i8, ptr %16, i64 %18
  %20 = load i8, ptr %19, align 1, !tbaa !71
  %21 = zext i8 %20 to i32
  %22 = and i32 %21, 1
  %23 = icmp ne i32 %22, 0
  br i1 %23, label %24, label %54

24:                                               ; preds = %13
  %25 = load ptr, ptr %3, align 8, !tbaa !22
  %26 = getelementptr inbounds nuw %struct.MixContext, ptr %25, i32 0, i32 14
  %27 = load ptr, ptr %26, align 8, !tbaa !39
  %28 = load i32, ptr %6, align 4, !tbaa !24
  %29 = sext i32 %28 to i64
  %30 = getelementptr inbounds float, ptr %27, i64 %29
  %31 = load float, ptr %30, align 4, !tbaa !47
  %32 = fcmp nsz oge float %31, 0.000000e+00
  br i1 %32, label %33, label %41

33:                                               ; preds = %24
  %34 = load ptr, ptr %3, align 8, !tbaa !22
  %35 = getelementptr inbounds nuw %struct.MixContext, ptr %34, i32 0, i32 14
  %36 = load ptr, ptr %35, align 8, !tbaa !39
  %37 = load i32, ptr %6, align 4, !tbaa !24
  %38 = sext i32 %37 to i64
  %39 = getelementptr inbounds float, ptr %36, i64 %38
  %40 = load float, ptr %39, align 4, !tbaa !47
  br label %50

41:                                               ; preds = %24
  %42 = load ptr, ptr %3, align 8, !tbaa !22
  %43 = getelementptr inbounds nuw %struct.MixContext, ptr %42, i32 0, i32 14
  %44 = load ptr, ptr %43, align 8, !tbaa !39
  %45 = load i32, ptr %6, align 4, !tbaa !24
  %46 = sext i32 %45 to i64
  %47 = getelementptr inbounds float, ptr %44, i64 %46
  %48 = load float, ptr %47, align 4, !tbaa !47
  %49 = fneg nsz float %48
  br label %50

50:                                               ; preds = %41, %33
  %51 = phi nsz float [ %40, %33 ], [ %49, %41 ]
  %52 = load float, ptr %5, align 4, !tbaa !47
  %53 = fadd nsz float %52, %51
  store float %53, ptr %5, align 4, !tbaa !47
  br label %54

54:                                               ; preds = %50, %13
  br label %55

55:                                               ; preds = %54
  %56 = load i32, ptr %6, align 4, !tbaa !24
  %57 = add nsw i32 %56, 1
  store i32 %57, ptr %6, align 4, !tbaa !24
  br label %7, !llvm.loop !95

58:                                               ; preds = %7
  store i32 0, ptr %6, align 4, !tbaa !24
  br label %59

59:                                               ; preds = %256, %58
  %60 = load i32, ptr %6, align 4, !tbaa !24
  %61 = load ptr, ptr %3, align 8, !tbaa !22
  %62 = getelementptr inbounds nuw %struct.MixContext, ptr %61, i32 0, i32 2
  %63 = load i32, ptr %62, align 8, !tbaa !25
  %64 = icmp slt i32 %60, %63
  br i1 %64, label %65, label %259

65:                                               ; preds = %59
  %66 = load ptr, ptr %3, align 8, !tbaa !22
  %67 = getelementptr inbounds nuw %struct.MixContext, ptr %66, i32 0, i32 12
  %68 = load ptr, ptr %67, align 8, !tbaa !70
  %69 = load i32, ptr %6, align 4, !tbaa !24
  %70 = sext i32 %69 to i64
  %71 = getelementptr inbounds i8, ptr %68, i64 %70
  %72 = load i8, ptr %71, align 1, !tbaa !71
  %73 = zext i8 %72 to i32
  %74 = and i32 %73, 1
  %75 = icmp ne i32 %74, 0
  br i1 %75, label %76, label %255

76:                                               ; preds = %65
  %77 = load ptr, ptr %3, align 8, !tbaa !22
  %78 = getelementptr inbounds nuw %struct.MixContext, ptr %77, i32 0, i32 16
  %79 = load ptr, ptr %78, align 8, !tbaa !48
  %80 = load i32, ptr %6, align 4, !tbaa !24
  %81 = sext i32 %80 to i64
  %82 = getelementptr inbounds float, ptr %79, i64 %81
  %83 = load float, ptr %82, align 4, !tbaa !47
  %84 = load float, ptr %5, align 4, !tbaa !47
  %85 = load ptr, ptr %3, align 8, !tbaa !22
  %86 = getelementptr inbounds nuw %struct.MixContext, ptr %85, i32 0, i32 14
  %87 = load ptr, ptr %86, align 8, !tbaa !39
  %88 = load i32, ptr %6, align 4, !tbaa !24
  %89 = sext i32 %88 to i64
  %90 = getelementptr inbounds float, ptr %87, i64 %89
  %91 = load float, ptr %90, align 4, !tbaa !47
  %92 = fcmp nsz oge float %91, 0.000000e+00
  br i1 %92, label %93, label %101

93:                                               ; preds = %76
  %94 = load ptr, ptr %3, align 8, !tbaa !22
  %95 = getelementptr inbounds nuw %struct.MixContext, ptr %94, i32 0, i32 14
  %96 = load ptr, ptr %95, align 8, !tbaa !39
  %97 = load i32, ptr %6, align 4, !tbaa !24
  %98 = sext i32 %97 to i64
  %99 = getelementptr inbounds float, ptr %96, i64 %98
  %100 = load float, ptr %99, align 4, !tbaa !47
  br label %110

101:                                              ; preds = %76
  %102 = load ptr, ptr %3, align 8, !tbaa !22
  %103 = getelementptr inbounds nuw %struct.MixContext, ptr %102, i32 0, i32 14
  %104 = load ptr, ptr %103, align 8, !tbaa !39
  %105 = load i32, ptr %6, align 4, !tbaa !24
  %106 = sext i32 %105 to i64
  %107 = getelementptr inbounds float, ptr %104, i64 %106
  %108 = load float, ptr %107, align 4, !tbaa !47
  %109 = fneg nsz float %108
  br label %110

110:                                              ; preds = %101, %93
  %111 = phi nsz float [ %100, %93 ], [ %109, %101 ]
  %112 = fdiv nsz float %84, %111
  %113 = fcmp nsz ogt float %83, %112
  br i1 %113, label %114, label %254

114:                                              ; preds = %110
  %115 = load ptr, ptr %3, align 8, !tbaa !22
  %116 = getelementptr inbounds nuw %struct.MixContext, ptr %115, i32 0, i32 15
  %117 = load float, ptr %116, align 8, !tbaa !46
  %118 = load ptr, ptr %3, align 8, !tbaa !22
  %119 = getelementptr inbounds nuw %struct.MixContext, ptr %118, i32 0, i32 14
  %120 = load ptr, ptr %119, align 8, !tbaa !39
  %121 = load i32, ptr %6, align 4, !tbaa !24
  %122 = sext i32 %121 to i64
  %123 = getelementptr inbounds float, ptr %120, i64 %122
  %124 = load float, ptr %123, align 4, !tbaa !47
  %125 = fcmp nsz oge float %124, 0.000000e+00
  br i1 %125, label %126, label %134

126:                                              ; preds = %114
  %127 = load ptr, ptr %3, align 8, !tbaa !22
  %128 = getelementptr inbounds nuw %struct.MixContext, ptr %127, i32 0, i32 14
  %129 = load ptr, ptr %128, align 8, !tbaa !39
  %130 = load i32, ptr %6, align 4, !tbaa !24
  %131 = sext i32 %130 to i64
  %132 = getelementptr inbounds float, ptr %129, i64 %131
  %133 = load float, ptr %132, align 4, !tbaa !47
  br label %143

134:                                              ; preds = %114
  %135 = load ptr, ptr %3, align 8, !tbaa !22
  %136 = getelementptr inbounds nuw %struct.MixContext, ptr %135, i32 0, i32 14
  %137 = load ptr, ptr %136, align 8, !tbaa !39
  %138 = load i32, ptr %6, align 4, !tbaa !24
  %139 = sext i32 %138 to i64
  %140 = getelementptr inbounds float, ptr %137, i64 %139
  %141 = load float, ptr %140, align 4, !tbaa !47
  %142 = fneg nsz float %141
  br label %143

143:                                              ; preds = %134, %126
  %144 = phi nsz float [ %133, %126 ], [ %142, %134 ]
  %145 = fdiv nsz float %117, %144
  %146 = load ptr, ptr %3, align 8, !tbaa !22
  %147 = getelementptr inbounds nuw %struct.MixContext, ptr %146, i32 0, i32 2
  %148 = load i32, ptr %147, align 8, !tbaa !25
  %149 = sitofp i32 %148 to float
  %150 = fdiv nsz float %145, %149
  %151 = load i32, ptr %4, align 4, !tbaa !24
  %152 = sitofp i32 %151 to float
  %153 = fmul nsz float %150, %152
  %154 = load ptr, ptr %3, align 8, !tbaa !22
  %155 = getelementptr inbounds nuw %struct.MixContext, ptr %154, i32 0, i32 5
  %156 = load float, ptr %155, align 4, !tbaa !96
  %157 = load ptr, ptr %3, align 8, !tbaa !22
  %158 = getelementptr inbounds nuw %struct.MixContext, ptr %157, i32 0, i32 9
  %159 = load i32, ptr %158, align 8, !tbaa !85
  %160 = sitofp i32 %159 to float
  %161 = fmul nsz float %156, %160
  %162 = fdiv nsz float %153, %161
  %163 = load ptr, ptr %3, align 8, !tbaa !22
  %164 = getelementptr inbounds nuw %struct.MixContext, ptr %163, i32 0, i32 16
  %165 = load ptr, ptr %164, align 8, !tbaa !48
  %166 = load i32, ptr %6, align 4, !tbaa !24
  %167 = sext i32 %166 to i64
  %168 = getelementptr inbounds float, ptr %165, i64 %167
  %169 = load float, ptr %168, align 4, !tbaa !47
  %170 = fsub nsz float %169, %162
  store float %170, ptr %168, align 4, !tbaa !47
  %171 = load ptr, ptr %3, align 8, !tbaa !22
  %172 = getelementptr inbounds nuw %struct.MixContext, ptr %171, i32 0, i32 16
  %173 = load ptr, ptr %172, align 8, !tbaa !48
  %174 = load i32, ptr %6, align 4, !tbaa !24
  %175 = sext i32 %174 to i64
  %176 = getelementptr inbounds float, ptr %173, i64 %175
  %177 = load float, ptr %176, align 4, !tbaa !47
  %178 = load float, ptr %5, align 4, !tbaa !47
  %179 = load ptr, ptr %3, align 8, !tbaa !22
  %180 = getelementptr inbounds nuw %struct.MixContext, ptr %179, i32 0, i32 14
  %181 = load ptr, ptr %180, align 8, !tbaa !39
  %182 = load i32, ptr %6, align 4, !tbaa !24
  %183 = sext i32 %182 to i64
  %184 = getelementptr inbounds float, ptr %181, i64 %183
  %185 = load float, ptr %184, align 4, !tbaa !47
  %186 = fcmp nsz oge float %185, 0.000000e+00
  br i1 %186, label %187, label %195

187:                                              ; preds = %143
  %188 = load ptr, ptr %3, align 8, !tbaa !22
  %189 = getelementptr inbounds nuw %struct.MixContext, ptr %188, i32 0, i32 14
  %190 = load ptr, ptr %189, align 8, !tbaa !39
  %191 = load i32, ptr %6, align 4, !tbaa !24
  %192 = sext i32 %191 to i64
  %193 = getelementptr inbounds float, ptr %190, i64 %192
  %194 = load float, ptr %193, align 4, !tbaa !47
  br label %204

195:                                              ; preds = %143
  %196 = load ptr, ptr %3, align 8, !tbaa !22
  %197 = getelementptr inbounds nuw %struct.MixContext, ptr %196, i32 0, i32 14
  %198 = load ptr, ptr %197, align 8, !tbaa !39
  %199 = load i32, ptr %6, align 4, !tbaa !24
  %200 = sext i32 %199 to i64
  %201 = getelementptr inbounds float, ptr %198, i64 %200
  %202 = load float, ptr %201, align 4, !tbaa !47
  %203 = fneg nsz float %202
  br label %204

204:                                              ; preds = %195, %187
  %205 = phi nsz float [ %194, %187 ], [ %203, %195 ]
  %206 = fdiv nsz float %178, %205
  %207 = fcmp nsz ogt float %177, %206
  br i1 %207, label %208, label %216

208:                                              ; preds = %204
  %209 = load ptr, ptr %3, align 8, !tbaa !22
  %210 = getelementptr inbounds nuw %struct.MixContext, ptr %209, i32 0, i32 16
  %211 = load ptr, ptr %210, align 8, !tbaa !48
  %212 = load i32, ptr %6, align 4, !tbaa !24
  %213 = sext i32 %212 to i64
  %214 = getelementptr inbounds float, ptr %211, i64 %213
  %215 = load float, ptr %214, align 4, !tbaa !47
  br label %246

216:                                              ; preds = %204
  %217 = load float, ptr %5, align 4, !tbaa !47
  %218 = load ptr, ptr %3, align 8, !tbaa !22
  %219 = getelementptr inbounds nuw %struct.MixContext, ptr %218, i32 0, i32 14
  %220 = load ptr, ptr %219, align 8, !tbaa !39
  %221 = load i32, ptr %6, align 4, !tbaa !24
  %222 = sext i32 %221 to i64
  %223 = getelementptr inbounds float, ptr %220, i64 %222
  %224 = load float, ptr %223, align 4, !tbaa !47
  %225 = fcmp nsz oge float %224, 0.000000e+00
  br i1 %225, label %226, label %234

226:                                              ; preds = %216
  %227 = load ptr, ptr %3, align 8, !tbaa !22
  %228 = getelementptr inbounds nuw %struct.MixContext, ptr %227, i32 0, i32 14
  %229 = load ptr, ptr %228, align 8, !tbaa !39
  %230 = load i32, ptr %6, align 4, !tbaa !24
  %231 = sext i32 %230 to i64
  %232 = getelementptr inbounds float, ptr %229, i64 %231
  %233 = load float, ptr %232, align 4, !tbaa !47
  br label %243

234:                                              ; preds = %216
  %235 = load ptr, ptr %3, align 8, !tbaa !22
  %236 = getelementptr inbounds nuw %struct.MixContext, ptr %235, i32 0, i32 14
  %237 = load ptr, ptr %236, align 8, !tbaa !39
  %238 = load i32, ptr %6, align 4, !tbaa !24
  %239 = sext i32 %238 to i64
  %240 = getelementptr inbounds float, ptr %237, i64 %239
  %241 = load float, ptr %240, align 4, !tbaa !47
  %242 = fneg nsz float %241
  br label %243

243:                                              ; preds = %234, %226
  %244 = phi nsz float [ %233, %226 ], [ %242, %234 ]
  %245 = fdiv nsz float %217, %244
  br label %246

246:                                              ; preds = %243, %208
  %247 = phi nsz float [ %215, %208 ], [ %245, %243 ]
  %248 = load ptr, ptr %3, align 8, !tbaa !22
  %249 = getelementptr inbounds nuw %struct.MixContext, ptr %248, i32 0, i32 16
  %250 = load ptr, ptr %249, align 8, !tbaa !48
  %251 = load i32, ptr %6, align 4, !tbaa !24
  %252 = sext i32 %251 to i64
  %253 = getelementptr inbounds float, ptr %250, i64 %252
  store float %247, ptr %253, align 4, !tbaa !47
  br label %254

254:                                              ; preds = %246, %110
  br label %255

255:                                              ; preds = %254, %65
  br label %256

256:                                              ; preds = %255
  %257 = load i32, ptr %6, align 4, !tbaa !24
  %258 = add nsw i32 %257, 1
  store i32 %258, ptr %6, align 4, !tbaa !24
  br label %59, !llvm.loop !97

259:                                              ; preds = %59
  store i32 0, ptr %6, align 4, !tbaa !24
  br label %260

260:                                              ; preds = %351, %259
  %261 = load i32, ptr %6, align 4, !tbaa !24
  %262 = load ptr, ptr %3, align 8, !tbaa !22
  %263 = getelementptr inbounds nuw %struct.MixContext, ptr %262, i32 0, i32 2
  %264 = load i32, ptr %263, align 8, !tbaa !25
  %265 = icmp slt i32 %261, %264
  br i1 %265, label %266, label %354

266:                                              ; preds = %260
  %267 = load ptr, ptr %3, align 8, !tbaa !22
  %268 = getelementptr inbounds nuw %struct.MixContext, ptr %267, i32 0, i32 12
  %269 = load ptr, ptr %268, align 8, !tbaa !70
  %270 = load i32, ptr %6, align 4, !tbaa !24
  %271 = sext i32 %270 to i64
  %272 = getelementptr inbounds i8, ptr %269, i64 %271
  %273 = load i8, ptr %272, align 1, !tbaa !71
  %274 = zext i8 %273 to i32
  %275 = and i32 %274, 1
  %276 = icmp ne i32 %275, 0
  br i1 %276, label %277, label %343

277:                                              ; preds = %266
  %278 = load ptr, ptr %3, align 8, !tbaa !22
  %279 = getelementptr inbounds nuw %struct.MixContext, ptr %278, i32 0, i32 7
  %280 = load i32, ptr %279, align 8, !tbaa !98
  %281 = icmp ne i32 %280, 0
  br i1 %281, label %316, label %282

282:                                              ; preds = %277
  %283 = load ptr, ptr %3, align 8, !tbaa !22
  %284 = getelementptr inbounds nuw %struct.MixContext, ptr %283, i32 0, i32 14
  %285 = load ptr, ptr %284, align 8, !tbaa !39
  %286 = load i32, ptr %6, align 4, !tbaa !24
  %287 = sext i32 %286 to i64
  %288 = getelementptr inbounds float, ptr %285, i64 %287
  %289 = load float, ptr %288, align 4, !tbaa !47
  %290 = fcmp nsz oge float %289, 0.000000e+00
  br i1 %290, label %291, label %299

291:                                              ; preds = %282
  %292 = load ptr, ptr %3, align 8, !tbaa !22
  %293 = getelementptr inbounds nuw %struct.MixContext, ptr %292, i32 0, i32 14
  %294 = load ptr, ptr %293, align 8, !tbaa !39
  %295 = load i32, ptr %6, align 4, !tbaa !24
  %296 = sext i32 %295 to i64
  %297 = getelementptr inbounds float, ptr %294, i64 %296
  %298 = load float, ptr %297, align 4, !tbaa !47
  br label %308

299:                                              ; preds = %282
  %300 = load ptr, ptr %3, align 8, !tbaa !22
  %301 = getelementptr inbounds nuw %struct.MixContext, ptr %300, i32 0, i32 14
  %302 = load ptr, ptr %301, align 8, !tbaa !39
  %303 = load i32, ptr %6, align 4, !tbaa !24
  %304 = sext i32 %303 to i64
  %305 = getelementptr inbounds float, ptr %302, i64 %304
  %306 = load float, ptr %305, align 4, !tbaa !47
  %307 = fneg nsz float %306
  br label %308

308:                                              ; preds = %299, %291
  %309 = phi nsz float [ %298, %291 ], [ %307, %299 ]
  %310 = load ptr, ptr %3, align 8, !tbaa !22
  %311 = getelementptr inbounds nuw %struct.MixContext, ptr %310, i32 0, i32 13
  %312 = load ptr, ptr %311, align 8, !tbaa !93
  %313 = load i32, ptr %6, align 4, !tbaa !24
  %314 = sext i32 %313 to i64
  %315 = getelementptr inbounds float, ptr %312, i64 %314
  store float %309, ptr %315, align 4, !tbaa !47
  br label %342

316:                                              ; preds = %277
  %317 = load ptr, ptr %3, align 8, !tbaa !22
  %318 = getelementptr inbounds nuw %struct.MixContext, ptr %317, i32 0, i32 16
  %319 = load ptr, ptr %318, align 8, !tbaa !48
  %320 = load i32, ptr %6, align 4, !tbaa !24
  %321 = sext i32 %320 to i64
  %322 = getelementptr inbounds float, ptr %319, i64 %321
  %323 = load float, ptr %322, align 4, !tbaa !47
  %324 = fdiv nsz float 1.000000e+00, %323
  %325 = load ptr, ptr %3, align 8, !tbaa !22
  %326 = getelementptr inbounds nuw %struct.MixContext, ptr %325, i32 0, i32 14
  %327 = load ptr, ptr %326, align 8, !tbaa !39
  %328 = load i32, ptr %6, align 4, !tbaa !24
  %329 = sext i32 %328 to i64
  %330 = getelementptr inbounds float, ptr %327, i64 %329
  %331 = load float, ptr %330, align 4, !tbaa !47
  %332 = fcmp nsz ogt float %331, 0.000000e+00
  %333 = select i1 %332, i32 1, i32 -1
  %334 = sitofp i32 %333 to float
  %335 = fmul nsz float %324, %334
  %336 = load ptr, ptr %3, align 8, !tbaa !22
  %337 = getelementptr inbounds nuw %struct.MixContext, ptr %336, i32 0, i32 13
  %338 = load ptr, ptr %337, align 8, !tbaa !93
  %339 = load i32, ptr %6, align 4, !tbaa !24
  %340 = sext i32 %339 to i64
  %341 = getelementptr inbounds float, ptr %338, i64 %340
  store float %335, ptr %341, align 4, !tbaa !47
  br label %342

342:                                              ; preds = %316, %308
  br label %350

343:                                              ; preds = %266
  %344 = load ptr, ptr %3, align 8, !tbaa !22
  %345 = getelementptr inbounds nuw %struct.MixContext, ptr %344, i32 0, i32 13
  %346 = load ptr, ptr %345, align 8, !tbaa !93
  %347 = load i32, ptr %6, align 4, !tbaa !24
  %348 = sext i32 %347 to i64
  %349 = getelementptr inbounds float, ptr %346, i64 %348
  store float 0.000000e+00, ptr %349, align 4, !tbaa !47
  br label %350

350:                                              ; preds = %343, %342
  br label %351

351:                                              ; preds = %350
  %352 = load i32, ptr %6, align 4, !tbaa !24
  %353 = add nsw i32 %352, 1
  store i32 %353, ptr %6, align 4, !tbaa !24
  br label %260, !llvm.loop !99

354:                                              ; preds = %260
  call void @llvm.lifetime.end.p0(i64 4, ptr %6) #9
  call void @llvm.lifetime.end.p0(i64 4, ptr %5) #9
  ret void
}