; Function Attrs: nofree norecurse nosync nounwind memory(readwrite, inaccessiblemem: none) uwtable
define internal fastcc void @calculate_scales(ptr noundef readonly captures(none) %0, i32 noundef %1) unnamed_addr #5 {
  %3 = getelementptr inbounds nuw i8, ptr %0, i64 16
  %4 = load i32, ptr %3, align 8, !tbaa !20
  %5 = icmp sgt i32 %4, 0
  br i1 %5, label %.lr.ph, label %._crit_edge

.lr.ph:                                           ; preds = %2
  %6 = getelementptr inbounds nuw i8, ptr %0, i64 64
  %7 = load ptr, ptr %6, align 8, !tbaa !79
  %8 = getelementptr inbounds nuw i8, ptr %0, i64 80
  %wide.trip.count = zext nneg i32 %4 to i64
  br label %18

.lr.ph102:                                        ; preds = %30
  %9 = getelementptr inbounds nuw i8, ptr %0, i64 64
  %10 = load ptr, ptr %9, align 8, !tbaa !79
  %11 = getelementptr inbounds nuw i8, ptr %0, i64 96
  %12 = getelementptr inbounds nuw i8, ptr %0, i64 80
  %13 = getelementptr inbounds nuw i8, ptr %0, i64 88
  %14 = uitofp nneg i32 %4 to float
  %15 = sitofp i32 %1 to float
  %16 = getelementptr inbounds nuw i8, ptr %0, i64 28
  %17 = getelementptr inbounds nuw i8, ptr %0, i64 48
  %wide.trip.count109 = zext nneg i32 %4 to i64
  br label %38

18:                                               ; preds = %.lr.ph, %30
  %indvars.iv = phi i64 [ 0, %.lr.ph ], [ %indvars.iv.next, %30 ]
  %.08098 = phi float [ 0.000000e+00, %.lr.ph ], [ %.181, %30 ]
  %19 = getelementptr inbounds nuw i8, ptr %7, i64 %indvars.iv
  %20 = load i8, ptr %19, align 1, !tbaa !39
  %21 = and i8 %20, 1
  %.not96 = icmp eq i8 %21, 0
  br i1 %.not96, label %30, label %22

22:                                               ; preds = %18
  %23 = load ptr, ptr %8, align 8, !tbaa !34
  %24 = getelementptr inbounds nuw float, ptr %23, i64 %indvars.iv
  %25 = load float, ptr %24, align 4, !tbaa !38
  %26 = fcmp nsz ult float %25, 0.000000e+00
  %27 = fneg nsz float %25
  %28 = select nsz i1 %26, float %27, float %25
  %29 = fadd nsz float %.08098, %28
  br label %30

30:                                               ; preds = %18, %22
  %.181 = phi nsz float [ %29, %22 ], [ %.08098, %18 ]
  %indvars.iv.next = add nuw nsw i64 %indvars.iv, 1
  %exitcond.not = icmp eq i64 %indvars.iv.next, %wide.trip.count
  br i1 %exitcond.not, label %.lr.ph102, label %18, !llvm.loop !102

.lr.ph104:                                        ; preds = %72
  %31 = getelementptr inbounds nuw i8, ptr %0, i64 64
  %32 = load ptr, ptr %31, align 8, !tbaa !79
  %33 = getelementptr inbounds nuw i8, ptr %0, i64 40
  %34 = getelementptr inbounds nuw i8, ptr %0, i64 96
  %35 = getelementptr inbounds nuw i8, ptr %0, i64 80
  %36 = getelementptr inbounds nuw i8, ptr %0, i64 72
  %wide.trip.count114 = zext nneg i32 %4 to i64
  %37 = load ptr, ptr %36, align 8, !tbaa !100
  br label %73

38:                                               ; preds = %.lr.ph102, %72
  %indvars.iv106 = phi i64 [ 0, %.lr.ph102 ], [ %indvars.iv.next107, %72 ]
  %39 = getelementptr inbounds nuw i8, ptr %10, i64 %indvars.iv106
  %40 = load i8, ptr %39, align 1, !tbaa !39
  %41 = and i8 %40, 1
  %.not95 = icmp eq i8 %41, 0
  br i1 %.not95, label %72, label %42

42:                                               ; preds = %38
  %43 = load ptr, ptr %11, align 8, !tbaa !56
  %44 = getelementptr inbounds nuw float, ptr %43, i64 %indvars.iv106
  %45 = load float, ptr %44, align 4, !tbaa !38
  %46 = load ptr, ptr %12, align 8, !tbaa !34
  %47 = getelementptr inbounds nuw float, ptr %46, i64 %indvars.iv106
  %48 = load float, ptr %47, align 4, !tbaa !38
  %49 = fcmp nsz ult float %48, 0.000000e+00
  %50 = fneg nsz float %48
  %51 = select nsz i1 %49, float %50, float %48
  %52 = fdiv nsz float %.181, %51
  %53 = fcmp nsz ogt float %45, %52
  br i1 %53, label %54, label %72

54:                                               ; preds = %42
  %55 = load float, ptr %13, align 8, !tbaa !35
  %56 = fdiv nsz float %55, %51
  %57 = fdiv nsz float %56, %14
  %58 = fmul nsz float %57, %15
  %59 = load float, ptr %16, align 4, !tbaa !103
  %60 = load i32, ptr %17, align 8, !tbaa !96
  %61 = sitofp i32 %60 to float
  %62 = fmul nsz float %59, %61
  %63 = fdiv nsz float %58, %62
  %64 = fsub nsz float %45, %63
  store float %64, ptr %44, align 4, !tbaa !38
  %65 = load float, ptr %47, align 4, !tbaa !38
  %66 = fcmp nsz ult float %65, 0.000000e+00
  %67 = fneg nsz float %65
  %68 = select nsz i1 %66, float %67, float %65
  %69 = fdiv nsz float %.181, %68
  %70 = fcmp nsz ogt float %64, %69
  %71 = select nsz i1 %70, float %64, float %69
  store float %71, ptr %44, align 4, !tbaa !38
  br label %72

72:                                               ; preds = %38, %54, %42
  %indvars.iv.next107 = add nuw nsw i64 %indvars.iv106, 1
  %exitcond110.not = icmp eq i64 %indvars.iv.next107, %wide.trip.count109
  br i1 %exitcond110.not, label %.lr.ph104, label %38, !llvm.loop !104

73:                                               ; preds = %.lr.ph104, %97
  %indvars.iv111 = phi i64 [ 0, %.lr.ph104 ], [ %indvars.iv.next112, %97 ]
  %74 = getelementptr inbounds nuw i8, ptr %32, i64 %indvars.iv111
  %75 = load i8, ptr %74, align 1, !tbaa !39
  %76 = and i8 %75, 1
  %.not = icmp eq i8 %76, 0
  br i1 %.not, label %97, label %77

77:                                               ; preds = %73
  %78 = load i32, ptr %33, align 8, !tbaa !105
  %.not94 = icmp eq i32 %78, 0
  br i1 %.not94, label %79, label %86

79:                                               ; preds = %77
  %80 = load ptr, ptr %35, align 8, !tbaa !34
  %81 = getelementptr inbounds nuw float, ptr %80, i64 %indvars.iv111
  %82 = load float, ptr %81, align 4, !tbaa !38
  %83 = fcmp nsz ult float %82, 0.000000e+00
  %84 = fneg nsz float %82
  %85 = select nsz i1 %83, float %84, float %82
  br label %97

86:                                               ; preds = %77
  %87 = load ptr, ptr %34, align 8, !tbaa !56
  %88 = getelementptr inbounds nuw float, ptr %87, i64 %indvars.iv111
  %89 = load float, ptr %88, align 4, !tbaa !38
  %90 = fdiv nsz float 1.000000e+00, %89
  %91 = load ptr, ptr %35, align 8, !tbaa !34
  %92 = getelementptr inbounds nuw float, ptr %91, i64 %indvars.iv111
  %93 = load float, ptr %92, align 4, !tbaa !38
  %94 = fcmp nsz ogt float %93, 0.000000e+00
  %95 = fneg nsz float %90
  %96 = select nsz i1 %94, float %90, float %95
  br label %97

97:                                               ; preds = %73, %86, %79
  %.sink = phi float [ %96, %86 ], [ %85, %79 ], [ 0.000000e+00, %73 ]
  %98 = getelementptr inbounds nuw float, ptr %37, i64 %indvars.iv111
  store float %.sink, ptr %98, align 4, !tbaa !38
  %indvars.iv.next112 = add nuw nsw i64 %indvars.iv111, 1
  %exitcond115.not = icmp eq i64 %indvars.iv.next112, %wide.trip.count114
  br i1 %exitcond115.not, label %._crit_edge, label %73, !llvm.loop !106

._crit_edge:                                      ; preds = %97, %2
  ret void
}